target datalayout = "e-m:e-p270:32:32-p271:32:32-p272:64:64-i64:64-i128:128-f80:128-n8:16:32:64-S128"
target triple = "x86_64-unknown-linux-gnu"

%class.symbol = type { ptr }
%class.ast = type { i32, i24, i32, i32 }
%class.decl = type { %class.ast, %class.symbol, ptr }
%class.parameter = type { %"class.std::variant" }
%"class.std::variant" = type { %"struct.std::__detail::__variant::_Variant_base.base", [7 x i8] }
%"struct.std::__detail::__variant::_Variant_base.base" = type { %"struct.std::__detail::__variant::_Move_assign_base.base" }
%"struct.std::__detail::__variant::_Move_assign_base.base" = type { %"struct.std::__detail::__variant::_Copy_assign_base.base" }
%"struct.std::__detail::__variant::_Copy_assign_base.base" = type { %"struct.std::__detail::__variant::_Move_ctor_base.base" }
%"struct.std::__detail::__variant::_Move_ctor_base.base" = type { %"struct.std::__detail::__variant::_Copy_ctor_base.base" }
%"struct.std::__detail::__variant::_Copy_ctor_base.base" = type { %"struct.std::__detail::__variant::_Variant_storage.base" }
%"struct.std::__detail::__variant::_Variant_storage.base" = type <{ %"union.std::__detail::__variant::_Variadic_union", i8 }>
%"union.std::__detail::__variant::_Variadic_union" = type { %"union.std::__detail::__variant::_Variadic_union.354" }
%"union.std::__detail::__variant::_Variadic_union.354" = type { %"struct.std::__detail::__variant::_Uninitialized.355" }
%"struct.std::__detail::__variant::_Uninitialized.355" = type { ptr }
%class.decl_info = type <{ i32, i32, %class.vector.373, i8, [7 x i8] }>
%class.vector.373 = type { ptr }
%class.sort_size = type { i32, i64 }
%"struct.std::__detail::__variant::_Variant_storage" = type <{ %"union.std::__detail::__variant::_Variadic_union", i8, [7 x i8] }>
%"class.std::bad_variant_access" = type { %"class.std::exception", ptr }
%"class.std::exception" = type { ptr }
%class.sort_info = type { %class.decl_info.base, %class.sort_size }
%class.decl_info.base = type <{ i32, i32, %class.vector.373, i8 }>

@.str.20 = private unnamed_addr constant [31 x i8] c"std::get: variant is valueless\00", align 1
@.str.21 = private unnamed_addr constant [34 x i8] c"std::get: wrong index for variant\00", align 1
@_ZTISt18bad_variant_access = linkonce_odr constant { ptr, ptr, ptr } { ptr getelementptr inbounds (ptr, ptr @_ZTVN10__cxxabiv120__si_class_type_infoE, i64 2), ptr @_ZTSSt18bad_variant_access, ptr @_ZTISt9exception }, comdat, align 8
@_ZTVSt18bad_variant_access = linkonce_odr unnamed_addr constant { [5 x ptr] } { [5 x ptr] [ptr null, ptr @_ZTISt18bad_variant_access, ptr @_ZNSt18bad_variant_accessD2Ev, ptr @_ZNSt18bad_variant_accessD0Ev, ptr @_ZNKSt18bad_variant_access4whatEv] }, comdat, align 8
@_ZTVSt9exception = external unnamed_addr constant { [5 x ptr] }, align 8

; Function Attrs: mustprogress nounwind uwtable
define linkonce_odr hidden void @_ZNSt9exceptionC2Ev(ptr noundef nonnull align 8 dereferenceable(8) %this) unnamed_addr #4 comdat align 2 {
entry:
  %this.addr = alloca ptr, align 8
  store ptr %this, ptr %this.addr, align 8
  %this1 = load ptr, ptr %this.addr, align 8
  store ptr getelementptr inbounds ({ [5 x ptr] }, ptr @_ZTVSt9exception, i32 0, i32 0, i32 2), ptr %this1, align 8
  ret void
}

; Function Attrs: mustprogress nounwind uwtable
define linkonce_odr hidden noundef nonnull align 8 dereferenceable(8) ptr @_ZNKRSt8__detail9__variant14_UninitializedIP3astLb1EE6_M_getEv(ptr noundef nonnull align 8 dereferenceable(8) %this) #4 comdat align 2 {
entry:
  %this.addr = alloca ptr, align 8
  store ptr %this, ptr %this.addr, align 8
  %this1 = load ptr, ptr %this.addr, align 8
  %_M_storage = getelementptr inbounds %"struct.std::__detail::__variant::_Uninitialized.355", ptr %this1, i32 0, i32 0
  ret ptr %_M_storage
}

; Function Attrs: mustprogress nounwind uwtable
define linkonce_odr hidden void @_ZNSt18bad_variant_accessC2EPKc(ptr noundef nonnull align 8 dereferenceable(16) %this, ptr noundef %__reason) unnamed_addr #4 comdat align 2 {
entry:
  %this.addr = alloca ptr, align 8
  %__reason.addr = alloca ptr, align 8
  store ptr %this, ptr %this.addr, align 8
  store ptr %__reason, ptr %__reason.addr, align 8
  %this1 = load ptr, ptr %this.addr, align 8
  call void @_ZNSt9exceptionC2Ev(ptr noundef nonnull align 8 dereferenceable(8) %this1) #3
  store ptr getelementptr inbounds ({ [5 x ptr] }, ptr @_ZTVSt18bad_variant_access, i32 0, i32 0, i32 2), ptr %this1, align 8
  %_M_reason = getelementptr inbounds %"class.std::bad_variant_access", ptr %this1, i32 0, i32 1
  %0 = load ptr, ptr %__reason.addr, align 8
  store ptr %0, ptr %_M_reason, align 8
  ret void
}

; Function Attrs: mustprogress nounwind uwtable
define linkonce_odr hidden noundef nonnull align 8 dereferenceable(8) ptr @_ZNSt8__detail9__variant7__get_nILm1ERKNS0_15_Variadic_unionIJiP3ast6symbolP7zstringP8rationaldjEEEEEDcOT0_(ptr noundef nonnull align 8 dereferenceable(8) %__u) #4 comdat {
entry:
  %__u.addr = alloca ptr, align 8
  store ptr %__u, ptr %__u.addr, align 8
  %0 = load ptr, ptr %__u.addr, align 8
  %call = call noundef nonnull align 8 dereferenceable(8) ptr @_ZNKRSt8__detail9__variant14_UninitializedIP3astLb1EE6_M_getEv(ptr noundef nonnull align 8 dereferenceable(8) %0) #3
  ret ptr %call
}

; Function Attrs: mustprogress uwtable
define linkonce_odr void @_ZSt26__throw_bad_variant_accessPKc(ptr noundef %__what) #5 comdat {
entry:
  %__what.addr = alloca ptr, align 8
  store ptr %__what, ptr %__what.addr, align 8
  %exception = call ptr @__cxa_allocate_exception(i64 16) #3
  %0 = load ptr, ptr %__what.addr, align 8
  call void @_ZNSt18bad_variant_accessC2EPKc(ptr noundef nonnull align 8 dereferenceable(16) %exception, ptr noundef %0) #3
  call void @__cxa_throw(ptr %exception, ptr @_ZTISt18bad_variant_access, ptr @_ZNSt18bad_variant_accessD2Ev) #16
  unreachable
}

; Function Attrs: mustprogress nounwind uwtable
define linkonce_odr hidden noundef zeroext i1 @_ZNKSt8__detail9__variant16_Variant_storageILb1EJiP3ast6symbolP7zstringP8rationaldjEE8_M_validEv(ptr noundef nonnull align 8 dereferenceable(9) %this) #4 comdat align 2 {
entry:
  %this.addr = alloca ptr, align 8
  store ptr %this, ptr %this.addr, align 8
  ret i1 true
}

; Function Attrs: mustprogress nounwind uwtable
define linkonce_odr hidden noundef nonnull align 8 dereferenceable(8) ptr @_ZNSt8__detail9__variant5__getILm1ERKSt7variantIJiP3ast6symbolP7zstringP8rationaldjEEEEDcOT0_(ptr noundef nonnull align 8 dereferenceable(9) %__v) #4 comdat {
entry:
  %__v.addr = alloca ptr, align 8
  store ptr %__v, ptr %__v.addr, align 8
  %0 = load ptr, ptr %__v.addr, align 8
  %_M_u = getelementptr inbounds %"struct.std::__detail::__variant::_Variant_storage", ptr %0, i32 0, i32 0
  %call = call noundef nonnull align 8 dereferenceable(8) ptr @_ZNSt8__detail9__variant7__get_nILm1ERKNS0_15_Variadic_unionIJiP3ast6symbolP7zstringP8rationaldjEEEEEDcOT0_(ptr noundef nonnull align 8 dereferenceable(8) %_M_u) #3
  ret ptr %call
}

; Function Attrs: mustprogress uwtable
define linkonce_odr void @_ZSt26__throw_bad_variant_accessb(i1 noundef zeroext %__valueless) #5 comdat {
entry:
  %__valueless.addr = alloca i8, align 1
  %frombool = zext i1 %__valueless to i8
  store i8 %frombool, ptr %__valueless.addr, align 1
  %0 = load i8, ptr %__valueless.addr, align 1
  %tobool = trunc i8 %0 to i1
  br i1 %tobool, label %if.then, label %if.else

if.then:                                          ; preds = %entry
  call void @_ZSt26__throw_bad_variant_accessPKc(ptr noundef @.str.20)
  br label %if.end

if.else:                                          ; preds = %entry
  call void @_ZSt26__throw_bad_variant_accessPKc(ptr noundef @.str.21)
  br label %if.end

if.end:                                           ; preds = %if.else, %if.then
  ret void
}

; Function Attrs: mustprogress nounwind uwtable
define linkonce_odr hidden noundef zeroext i1 @_ZNKSt7variantIJiP3ast6symbolP7zstringP8rationaldjEE22valueless_by_exceptionEv(ptr noundef nonnull align 8 dereferenceable(9) %this) #4 comdat align 2 {
entry:
  %this.addr = alloca ptr, align 8
  store ptr %this, ptr %this.addr, align 8
  %this1 = load ptr, ptr %this.addr, align 8
  %call = call noundef zeroext i1 @_ZNKSt8__detail9__variant16_Variant_storageILb1EJiP3ast6symbolP7zstringP8rationaldjEE8_M_validEv(ptr noundef nonnull align 8 dereferenceable(9) %this1) #3
  %lnot = xor i1 %call, true
  ret i1 %lnot
}

; Function Attrs: mustprogress nounwind uwtable
define linkonce_odr hidden noundef i64 @_ZNKSt7variantIJiP3ast6symbolP7zstringP8rationaldjEE5indexEv(ptr noundef nonnull align 8 dereferenceable(9) %this) #4 comdat align 2 {
entry:
  %this.addr = alloca ptr, align 8
  store ptr %this, ptr %this.addr, align 8
  %this1 = load ptr, ptr %this.addr, align 8
  %_M_index = getelementptr inbounds %"struct.std::__detail::__variant::_Variant_storage", ptr %this1, i32 0, i32 1
  %0 = load i8, ptr %_M_index, align 8
  %conv = zext i8 %0 to i64
  ret i64 %conv
}

; Function Attrs: mustprogress nounwind uwtable
define linkonce_odr hidden noundef zeroext i1 @_ZNK9sort_size11is_very_bigEv(ptr noundef nonnull align 8 dereferenceable(16) %this) #4 comdat align 2 {
entry:
  %this.addr = alloca ptr, align 8
  store ptr %this, ptr %this.addr, align 8
  %this1 = load ptr, ptr %this.addr, align 8
  %m_kind = getelementptr inbounds %class.sort_size, ptr %this1, i32 0, i32 0
  %0 = load i32, ptr %m_kind, align 8
  %cmp = icmp eq i32 %0, 1
  ret i1 %cmp
}

; Function Attrs: mustprogress nounwind uwtable
define linkonce_odr hidden noundef zeroext i1 @_ZNK9sort_size11is_infiniteEv(ptr noundef nonnull align 8 dereferenceable(16) %this) #4 comdat align 2 {
entry:
  %this.addr = alloca ptr, align 8
  store ptr %this, ptr %this.addr, align 8
  %this1 = load ptr, ptr %this.addr, align 8
  %m_kind = getelementptr inbounds %class.sort_size, ptr %this1, i32 0, i32 0
  %0 = load i32, ptr %m_kind, align 8
  %cmp = icmp eq i32 %0, 2
  ret i1 %cmp
}

; Function Attrs: mustprogress uwtable
define linkonce_odr hidden noundef nonnull align 8 dereferenceable(8) ptr @_ZSt3getILm1EJiP3ast6symbolP7zstringP8rationaldjEERKNSt19variant_alternativeIXT_ESt7variantIJDpT0_EEE4typeERKSB_(ptr noundef nonnull align 8 dereferenceable(9) %__v) #5 comdat {
entry:
  %__v.addr = alloca ptr, align 8
  store ptr %__v, ptr %__v.addr, align 8
  %0 = load ptr, ptr %__v.addr, align 8
  %call = call noundef i64 @_ZNKSt7variantIJiP3ast6symbolP7zstringP8rationaldjEE5indexEv(ptr noundef nonnull align 8 dereferenceable(9) %0) #3
  %cmp = icmp ne i64 %call, 1
  br i1 %cmp, label %if.then, label %if.end

if.then:                                          ; preds = %entry
  %1 = load ptr, ptr %__v.addr, align 8
  %call1 = call noundef zeroext i1 @_ZNKSt7variantIJiP3ast6symbolP7zstringP8rationaldjEE22valueless_by_exceptionEv(ptr noundef nonnull align 8 dereferenceable(9) %1) #3
  call void @_ZSt26__throw_bad_variant_accessb(i1 noundef zeroext %call1)
  br label %if.end

if.end:                                           ; preds = %if.then, %entry
  %2 = load ptr, ptr %__v.addr, align 8
  %call2 = call noundef nonnull align 8 dereferenceable(8) ptr @_ZNSt8__detail9__variant5__getILm1ERKSt7variantIJiP3ast6symbolP7zstringP8rationaldjEEEEDcOT0_(ptr noundef nonnull align 8 dereferenceable(9) %2) #3
  ret ptr %call2
}

; Function Attrs: mustprogress nounwind uwtable
define linkonce_odr hidden noundef nonnull align 8 dereferenceable(16) ptr @_ZNK9sort_info16get_num_elementsEv(ptr noundef nonnull align 8 dereferenceable(40) %this) #4 comdat align 2 {
entry:
  %this.addr = alloca ptr, align 8
  store ptr %this, ptr %this.addr, align 8
  %this1 = load ptr, ptr %this.addr, align 8
  %m_num_elements = getelementptr inbounds %class.sort_info, ptr %this1, i32 0, i32 1
  ret ptr %m_num_elements
}

; Function Attrs: mustprogress uwtable
define linkonce_odr hidden noundef zeroext i1 @_ZNK9sort_info11is_very_bigEv(ptr noundef nonnull align 8 dereferenceable(40) %this) #5 comdat align 2 {
entry:
  %this.addr = alloca ptr, align 8
  store ptr %this, ptr %this.addr, align 8
  %this1 = load ptr, ptr %this.addr, align 8
  %m_num_elements = getelementptr inbounds %class.sort_info, ptr %this1, i32 0, i32 1
  %call = call noundef zeroext i1 @_ZNK9sort_size11is_very_bigEv(ptr noundef nonnull align 8 dereferenceable(16) %m_num_elements)
  ret i1 %call
}

; Function Attrs: mustprogress uwtable
define linkonce_odr hidden noundef zeroext i1 @_ZNK9sort_info11is_infiniteEv(ptr noundef nonnull align 8 dereferenceable(40) %this) #5 comdat align 2 {
entry:
  %this.addr = alloca ptr, align 8
  store ptr %this, ptr %this.addr, align 8
  %this1 = load ptr, ptr %this.addr, align 8
  %m_num_elements = getelementptr inbounds %class.sort_info, ptr %this1, i32 0, i32 1
  %call = call noundef zeroext i1 @_ZNK9sort_size11is_infiniteEv(ptr noundef nonnull align 8 dereferenceable(16) %m_num_elements)
  ret i1 %call
}

; Function Attrs: mustprogress uwtable
define linkonce_odr hidden noundef nonnull align 8 dereferenceable(8) ptr @_ZSt3getIP3astJiS1_6symbolP7zstringP8rationaldjEERKT_RKSt7variantIJDpT0_EE(ptr noundef nonnull align 8 dereferenceable(9) %__v) #5 comdat {
entry:
  %__v.addr = alloca ptr, align 8
  %__n = alloca i64, align 8
  store ptr %__v, ptr %__v.addr, align 8
  store i64 1, ptr %__n, align 8
  %0 = load ptr, ptr %__v.addr, align 8
  %call = call noundef nonnull align 8 dereferenceable(8) ptr @_ZSt3getILm1EJiP3ast6symbolP7zstringP8rationaldjEERKNSt19variant_alternativeIXT_ESt7variantIJDpT0_EEE4typeERKSB_(ptr noundef nonnull align 8 dereferenceable(9) %0)
  ret ptr %call
}

; Function Attrs: mustprogress nounwind uwtable
define linkonce_odr hidden noundef ptr @_ZNK6vectorI9parameterLb1EjE5beginEv(ptr noundef nonnull align 8 dereferenceable(8) %this) #4 comdat align 2 {
entry:
  %this.addr = alloca ptr, align 8
  store ptr %this, ptr %this.addr, align 8
  %this1 = load ptr, ptr %this.addr, align 8
  %m_data = getelementptr inbounds %class.vector.373, ptr %this1, i32 0, i32 0
  %0 = load ptr, ptr %m_data, align 8
  ret ptr %0
}

; Function Attrs: mustprogress nounwind uwtable
define linkonce_odr hidden noundef i64 @_ZNK9sort_size4sizeEv(ptr noundef nonnull align 8 dereferenceable(16) %this) #4 comdat align 2 {
entry:
  %this.addr = alloca ptr, align 8
  store ptr %this, ptr %this.addr, align 8
  %this1 = load ptr, ptr %this.addr, align 8
  %m_size = getelementptr inbounds %class.sort_size, ptr %this1, i32 0, i32 1
  %0 = load i64, ptr %m_size, align 8
  ret i64 %0
}

; Function Attrs: mustprogress uwtable
define linkonce_odr hidden noundef nonnull align 8 dereferenceable(16) ptr @_ZNK4sort16get_num_elementsEv(ptr noundef nonnull align 8 dereferenceable(32) %this) #5 comdat align 2 {
entry:
  %this.addr = alloca ptr, align 8
  store ptr %this, ptr %this.addr, align 8
  %this1 = load ptr, ptr %this.addr, align 8
  %call = call noundef ptr @_ZNK4sort8get_infoEv(ptr noundef nonnull align 8 dereferenceable(32) %this1)
  %call2 = call noundef nonnull align 8 dereferenceable(16) ptr @_ZNK9sort_info16get_num_elementsEv(ptr noundef nonnull align 8 dereferenceable(40) %call)
  ret ptr %call2
}

; Function Attrs: mustprogress uwtable
define linkonce_odr hidden noundef zeroext i1 @_ZNK4sort11is_very_bigEv(ptr noundef nonnull align 8 dereferenceable(32) %this) #5 comdat align 2 {
entry:
  %this.addr = alloca ptr, align 8
  store ptr %this, ptr %this.addr, align 8
  %this1 = load ptr, ptr %this.addr, align 8
  %call = call noundef ptr @_ZNK4sort8get_infoEv(ptr noundef nonnull align 8 dereferenceable(32) %this1)
  %cmp = icmp eq ptr %call, null
  br i1 %cmp, label %lor.end, label %lor.rhs

lor.rhs:                                          ; preds = %entry
  %call2 = call noundef ptr @_ZNK4sort8get_infoEv(ptr noundef nonnull align 8 dereferenceable(32) %this1)
  %call3 = call noundef zeroext i1 @_ZNK9sort_info11is_very_bigEv(ptr noundef nonnull align 8 dereferenceable(40) %call2)
  br label %lor.end

lor.end:                                          ; preds = %lor.rhs, %entry
  %0 = phi i1 [ true, %entry ], [ %call3, %lor.rhs ]
  ret i1 %0
}

; Function Attrs: mustprogress uwtable
define linkonce_odr hidden noundef zeroext i1 @_ZNK4sort11is_infiniteEv(ptr noundef nonnull align 8 dereferenceable(32) %this) #5 comdat align 2 {
entry:
  %this.addr = alloca ptr, align 8
  store ptr %this, ptr %this.addr, align 8
  %this1 = load ptr, ptr %this.addr, align 8
  %call = call noundef ptr @_ZNK4sort8get_infoEv(ptr noundef nonnull align 8 dereferenceable(32) %this1)
  %cmp = icmp eq ptr %call, null
  br i1 %cmp, label %lor.end, label %lor.rhs

lor.rhs:                                          ; preds = %entry
  %call2 = call noundef ptr @_ZNK4sort8get_infoEv(ptr noundef nonnull align 8 dereferenceable(32) %this1)
  %call3 = call noundef zeroext i1 @_ZNK9sort_info11is_infiniteEv(ptr noundef nonnull align 8 dereferenceable(40) %call2)
  br label %lor.end

lor.end:                                          ; preds = %lor.rhs, %entry
  %0 = phi i1 [ true, %entry ], [ %call3, %lor.rhs ]
  ret i1 %0
}

; Function Attrs: mustprogress nounwind uwtable
define linkonce_odr hidden noundef ptr @_Z7to_sortP3ast(ptr noundef %n) #4 comdat {
entry:
  %n.addr = alloca ptr, align 8
  store ptr %n, ptr %n.addr, align 8
  %0 = load ptr, ptr %n.addr, align 8
  ret ptr %0
}

; Function Attrs: mustprogress uwtable
define linkonce_odr hidden noundef ptr @_ZNK9parameter7get_astEv(ptr noundef nonnull align 8 dereferenceable(16) %this) #5 comdat align 2 {
entry:
  %this.addr = alloca ptr, align 8
  store ptr %this, ptr %this.addr, align 8
  %this1 = load ptr, ptr %this.addr, align 8
  %m_val = getelementptr inbounds %class.parameter, ptr %this1, i32 0, i32 0
  %call = call noundef nonnull align 8 dereferenceable(8) ptr @_ZSt3getIP3astJiS1_6symbolP7zstringP8rationaldjEERKT_RKSt7variantIJDpT0_EE(ptr noundef nonnull align 8 dereferenceable(9) %m_val)
  %0 = load ptr, ptr %call, align 8
  ret ptr %0
}

; Function Attrs: mustprogress uwtable
define linkonce_odr hidden noundef ptr @_ZNK9decl_info14get_parametersEv(ptr noundef nonnull align 8 dereferenceable(17) %this) #5 comdat align 2 {
entry:
  %this.addr = alloca ptr, align 8
  store ptr %this, ptr %this.addr, align 8
  %this1 = load ptr, ptr %this.addr, align 8
  %m_parameters = getelementptr inbounds %class.decl_info, ptr %this1, i32 0, i32 2
  %call = call noundef ptr @_ZNK6vectorI9parameterLb1EjE5beginEv(ptr noundef nonnull align 8 dereferenceable(8) %m_parameters)
  ret ptr %call
}

; Function Attrs: mustprogress nounwind uwtable
define linkonce_odr hidden noundef ptr @_ZNK4sort8get_infoEv(ptr noundef nonnull align 8 dereferenceable(32) %this) #4 comdat align 2 {
entry:
  %this.addr = alloca ptr, align 8
  store ptr %this, ptr %this.addr, align 8
  %this1 = load ptr, ptr %this.addr, align 8
  %m_info = getelementptr inbounds %class.decl, ptr %this1, i32 0, i32 2
  %0 = load ptr, ptr %m_info, align 8
  ret ptr %0
}

; Function Attrs: mustprogress uwtable
define hidden noundef zeroext i1 @_ZN3smt17theory_array_full18has_unitary_domainEP3app(ptr noundef nonnull align 8 dereferenceable(608) %this, ptr noundef %array_term) #5 align 2 {
entry:
  %retval = alloca i1, align 1
  %this.addr = alloca ptr, align 8
  %array_term.addr = alloca ptr, align 8
  %s = alloca ptr, align 8
  %dim = alloca i32, align 4
  %params = alloca ptr, align 8
  %i = alloca i32, align 4
  %d = alloca ptr, align 8
  store ptr %this, ptr %this.addr, align 8
  store ptr %array_term, ptr %array_term.addr, align 8
  %this1 = load ptr, ptr %this.addr, align 8
  %0 = load ptr, ptr %array_term.addr, align 8
  %call = call noundef ptr @_ZNK4expr8get_sortEv(ptr noundef nonnull align 4 dereferenceable(16) %0)
  store ptr %call, ptr %s, align 8
  %1 = load ptr, ptr %s, align 8
  %call2 = call noundef i32 @_ZNK3smt17theory_array_base13get_dimensionEP4sort(ptr noundef nonnull align 8 dereferenceable(249) %this1, ptr noundef %1)
  store i32 %call2, ptr %dim, align 4
  %2 = load ptr, ptr %s, align 8
  %call3 = call noundef ptr @_ZNK4sort8get_infoEv(ptr noundef nonnull align 8 dereferenceable(32) %2)
  %call4 = call noundef ptr @_ZNK9decl_info14get_parametersEv(ptr noundef nonnull align 8 dereferenceable(17) %call3)
  store ptr %call4, ptr %params, align 8
  store i32 0, ptr %i, align 4
  br label %for.cond

for.cond:                                         ; preds = %for.inc, %entry
  %3 = load i32, ptr %i, align 4
  %4 = load i32, ptr %dim, align 4
  %cmp = icmp ult i32 %3, %4
  br i1 %cmp, label %for.body, label %for.end

for.body:                                         ; preds = %for.cond
  %5 = load ptr, ptr %params, align 8
  %6 = load i32, ptr %i, align 4
  %idxprom = zext i32 %6 to i64
  %arrayidx = getelementptr inbounds %class.parameter, ptr %5, i64 %idxprom
  %call5 = call noundef ptr @_ZNK9parameter7get_astEv(ptr noundef nonnull align 8 dereferenceable(16) %arrayidx)
  %call6 = call noundef ptr @_Z7to_sortP3ast(ptr noundef %call5)
  store ptr %call6, ptr %d, align 8
  %7 = load ptr, ptr %d, align 8
  %call7 = call noundef zeroext i1 @_ZNK4sort11is_infiniteEv(ptr noundef nonnull align 8 dereferenceable(32) %7)
  br i1 %call7, label %if.then, label %lor.lhs.false

lor.lhs.false:                                    ; preds = %for.body
  %8 = load ptr, ptr %d, align 8
  %call8 = call noundef zeroext i1 @_ZNK4sort11is_very_bigEv(ptr noundef nonnull align 8 dereferenceable(32) %8)
  br i1 %call8, label %if.then, label %lor.lhs.false9

lor.lhs.false9:                                   ; preds = %lor.lhs.false
  %9 = load ptr, ptr %d, align 8
  %call10 = call noundef nonnull align 8 dereferenceable(16) ptr @_ZNK4sort16get_num_elementsEv(ptr noundef nonnull align 8 dereferenceable(32) %9)
  %call11 = call noundef i64 @_ZNK9sort_size4sizeEv(ptr noundef nonnull align 8 dereferenceable(16) %call10)
  %cmp12 = icmp ne i64 1, %call11
  br i1 %cmp12, label %if.then, label %if.end

if.then:                                          ; preds = %lor.lhs.false9, %lor.lhs.false, %for.body
  store i1 false, ptr %retval, align 1
  br label %return

if.end:                                           ; preds = %lor.lhs.false9
  br label %for.inc

for.inc:                                          ; preds = %if.end
  %10 = load i32, ptr %i, align 4
  %inc = add i32 %10, 1
  store i32 %inc, ptr %i, align 4
  br label %for.cond, !llvm.loop !21

for.end:                                          ; preds = %for.cond
  store i1 true, ptr %retval, align 1
  br label %return

return:                                           ; preds = %for.end, %if.then
  %11 = load i1, ptr %retval, align 1
  ret i1 %11
}