; Function Attrs: mustprogress uwtable
define hidden noundef zeroext i1 @_ZN3smt17theory_array_full18has_unitary_domainEP3app(ptr noundef nonnull align 8 dereferenceable(608) %this, ptr noundef nonnull %array_term) local_unnamed_addr #3 align 2 {
entry:
  %call = tail call noundef ptr @_ZNK4expr8get_sortEv(ptr noundef nonnull align 4 dereferenceable(16) %array_term)
  %call2 = tail call noundef i32 @_ZNK3smt17theory_array_base13get_dimensionEP4sort(ptr noundef nonnull align 8 dereferenceable(249) %this, ptr noundef %call)
  %m_info.i = getelementptr inbounds i8, ptr %call, i64 24
  %0 = load ptr, ptr %m_info.i, align 8
  %m_parameters.i = getelementptr inbounds i8, ptr %0, i64 8
  %1 = load ptr, ptr %m_parameters.i, align 8
  %cmp14 = icmp eq i32 %call2, 0
  br i1 %cmp14, label %return, label %for.body.preheader

for.body.preheader:                               ; preds = %entry
  %2 = zext i32 %call2 to i64
  br label %for.body

for.cond:                                         ; preds = %lor.lhs.false9
  %indvars.iv.next = add nuw nsw i64 %indvars.iv, 1
  %cmp = icmp uge i64 %indvars.iv.next, %2
  %exitcond = icmp eq i64 %indvars.iv.next, %2
  br i1 %exitcond, label %return, label %for.body, !llvm.loop !28

for.body:                                         ; preds = %for.body.preheader, %for.cond
  %indvars.iv = phi i64 [ 0, %for.body.preheader ], [ %indvars.iv.next, %for.cond ]
  %cmp16 = phi i1 [ false, %for.body.preheader ], [ %cmp, %for.cond ]
  %arrayidx = getelementptr inbounds %class.parameter, ptr %1, i64 %indvars.iv
  %_M_index.i.i.i.i = getelementptr inbounds i8, ptr %arrayidx, i64 8
  %3 = load i8, ptr %_M_index.i.i.i.i, align 8
  %cmp.not.i.i.i = icmp eq i8 %3, 1
  br i1 %cmp.not.i.i.i, label %_ZNK9parameter7get_astEv.exit, label %if.then.i.i.i

if.then.i.i.i:                                    ; preds = %for.body
  %exception.i.i.i.i.i = tail call ptr @__cxa_allocate_exception(i64 16) #16
  store ptr getelementptr inbounds ({ [5 x ptr] }, ptr @_ZTVSt18bad_variant_access, i64 0, i32 0, i64 2), ptr %exception.i.i.i.i.i, align 8
  %_M_reason.i.i.i.i.i.i = getelementptr inbounds i8, ptr %exception.i.i.i.i.i, i64 8
  store ptr @.str.21, ptr %_M_reason.i.i.i.i.i.i, align 8
  tail call void @__cxa_throw(ptr nonnull %exception.i.i.i.i.i, ptr nonnull @_ZTISt18bad_variant_access, ptr nonnull @_ZNSt18bad_variant_accessD2Ev) #19
  unreachable

_ZNK9parameter7get_astEv.exit:                    ; preds = %for.body
  %4 = load ptr, ptr %arrayidx, align 8
  %m_info.i.i = getelementptr inbounds i8, ptr %4, i64 24
  %5 = load ptr, ptr %m_info.i.i, align 8
  %cmp.i = icmp eq ptr %5, null
  br i1 %cmp.i, label %return, label %_ZNK4sort11is_infiniteEv.exit

_ZNK4sort11is_infiniteEv.exit:                    ; preds = %_ZNK9parameter7get_astEv.exit
  %m_num_elements.i.i = getelementptr inbounds i8, ptr %5, i64 24
  %6 = load i32, ptr %m_num_elements.i.i, align 8
  %.off = add i32 %6, -1
  %switch = icmp ult i32 %.off, 2
  br i1 %switch, label %return, label %lor.lhs.false9

lor.lhs.false9:                                   ; preds = %_ZNK4sort11is_infiniteEv.exit
  %m_size.i = getelementptr inbounds i8, ptr %5, i64 32
  %7 = load i64, ptr %m_size.i, align 8
  %cmp12.not = icmp eq i64 %7, 1
  br i1 %cmp12.not, label %for.cond, label %return

return:                                           ; preds = %_ZNK4sort11is_infiniteEv.exit, %lor.lhs.false9, %for.cond, %_ZNK9parameter7get_astEv.exit, %entry
  %cmp.lcssa = phi i1 [ true, %entry ], [ %cmp16, %_ZNK9parameter7get_astEv.exit ], [ %cmp, %for.cond ], [ %cmp16, %lor.lhs.false9 ], [ %cmp16, %_ZNK4sort11is_infiniteEv.exit ]
  ret i1 %cmp.lcssa
}